target datalayout = "e-m:e-p270:32:32-p271:32:32-p272:64:64-i64:64-i128:128-f80:128-n8:16:32:64-S128"
target triple = "x86_64-pc-linux-gnu"

%struct.FT_GlyphRec_ = type { ptr, ptr, i32, %struct.FT_Vector_ }
%struct.FT_Vector_ = type { i64, i64 }
%struct.FT_GlyphSlotRec_ = type { ptr, ptr, ptr, i32, %struct.FT_Generic_, %struct.FT_Glyph_Metrics_, i64, i64, %struct.FT_Vector_, i32, %struct.FT_Bitmap_, i32, i32, %struct.FT_Outline_, i32, ptr, ptr, i64, i64, i64, ptr, ptr }
%struct.FT_Generic_ = type { ptr, ptr }
%struct.FT_Glyph_Metrics_ = type { i64, i64, i64, i64, i64, i64, i64, i64 }
%struct.FT_Bitmap_ = type { i32, i32, i32, ptr, i16, i8, i8, ptr }
%struct.FT_Outline_ = type { i16, i16, ptr, ptr, ptr, i32 }
%struct.FT_Matrix_ = type { i64, i64, i64, i64 }
%struct.FT_LibraryRec_ = type { ptr, i32, i32, i32, i32, [32 x ptr], %struct.FT_ListRec_, ptr, ptr, [4 x ptr], [3 x %struct.FT_Vector_], i32 }
%struct.FT_ListRec_ = type { ptr, ptr }
%struct.FT_SVG_DocumentRec_ = type { ptr, i64, %struct.FT_Size_Metrics_, i16, i16, i16, %struct.FT_Matrix_, %struct.FT_Vector_ }
%struct.FT_Size_Metrics_ = type { i16, i16, i64, i64, i64, i64, i64, i64 }
%struct.FT_SvgGlyphRec_ = type { %struct.FT_GlyphRec_, ptr, i64, i32, %struct.FT_Size_Metrics_, i16, i16, i16, %struct.FT_Matrix_, %struct.FT_Vector_ }

; Function Attrs: nounwind uwtable
define internal i32 @ft_svg_glyph_init(ptr noundef %0, ptr noundef %1) #0 {
  %3 = alloca ptr, align 8
  %4 = alloca ptr, align 8
  %5 = alloca i64, align 8
  %6 = alloca ptr, align 8
  %7 = alloca ptr, align 8
  %8 = alloca i32, align 4
  %9 = alloca ptr, align 8
  store ptr %0, ptr %3, align 8, !tbaa !3
  store ptr %1, ptr %4, align 8, !tbaa !8
  call void @llvm.lifetime.start.p0(i64 8, ptr %5) #6
  call void @llvm.lifetime.start.p0(i64 8, ptr %6) #6
  call void @llvm.lifetime.start.p0(i64 8, ptr %7) #6
  %10 = load ptr, ptr %3, align 8, !tbaa !3
  store ptr %10, ptr %7, align 8, !tbaa !75
  call void @llvm.lifetime.start.p0(i64 4, ptr %8) #6
  store i32 0, ptr %8, align 4, !tbaa !12
  call void @llvm.lifetime.start.p0(i64 8, ptr %9) #6
  %11 = load ptr, ptr %7, align 8, !tbaa !75
  %12 = getelementptr inbounds nuw %struct.FT_GlyphRec_, ptr %11, i32 0, i32 0
  %13 = load ptr, ptr %12, align 8, !tbaa !14
  %14 = getelementptr inbounds nuw %struct.FT_LibraryRec_, ptr %13, i32 0, i32 0
  %15 = load ptr, ptr %14, align 8, !tbaa !77
  store ptr %15, ptr %9, align 8, !tbaa !84
  %16 = load ptr, ptr %4, align 8, !tbaa !8
  %17 = getelementptr inbounds nuw %struct.FT_GlyphSlotRec_, ptr %16, i32 0, i32 9
  %18 = load i32, ptr %17, align 8, !tbaa !21
  %19 = icmp ne i32 %18, 1398163232
  br i1 %19, label %20, label %21

20:                                               ; preds = %2
  store i32 18, ptr %8, align 4, !tbaa !12
  br label %91

21:                                               ; preds = %2
  %22 = load ptr, ptr %4, align 8, !tbaa !8
  %23 = getelementptr inbounds nuw %struct.FT_GlyphSlotRec_, ptr %22, i32 0, i32 20
  %24 = load ptr, ptr %23, align 8, !tbaa !85
  %25 = icmp eq ptr %24, null
  br i1 %25, label %26, label %27

26:                                               ; preds = %21
  store i32 37, ptr %8, align 4, !tbaa !12
  br label %91

27:                                               ; preds = %21
  %28 = load ptr, ptr %4, align 8, !tbaa !8
  %29 = getelementptr inbounds nuw %struct.FT_GlyphSlotRec_, ptr %28, i32 0, i32 20
  %30 = load ptr, ptr %29, align 8, !tbaa !85
  store ptr %30, ptr %6, align 8, !tbaa !86
  %31 = load ptr, ptr %6, align 8, !tbaa !86
  %32 = getelementptr inbounds nuw %struct.FT_SVG_DocumentRec_, ptr %31, i32 0, i32 1
  %33 = load i64, ptr %32, align 8, !tbaa !88
  %34 = icmp eq i64 %33, 0
  br i1 %34, label %35, label %36

35:                                               ; preds = %27
  store i32 37, ptr %8, align 4, !tbaa !12
  br label %91

36:                                               ; preds = %27
  %37 = load ptr, ptr %6, align 8, !tbaa !86
  %38 = getelementptr inbounds nuw %struct.FT_SVG_DocumentRec_, ptr %37, i32 0, i32 1
  %39 = load i64, ptr %38, align 8, !tbaa !88
  store i64 %39, ptr %5, align 8, !tbaa !91
  %40 = load ptr, ptr %9, align 8, !tbaa !84
  %41 = load i64, ptr %5, align 8, !tbaa !91
  %42 = call ptr @ft_mem_qalloc(ptr noundef %40, i64 noundef %41, ptr noundef %8)
  %43 = load ptr, ptr %7, align 8, !tbaa !75
  %44 = getelementptr inbounds nuw %struct.FT_SvgGlyphRec_, ptr %43, i32 0, i32 1
  store ptr %42, ptr %44, align 8, !tbaa !92
  %45 = load i32, ptr %8, align 4, !tbaa !12
  %46 = icmp ne i32 %45, 0
  br i1 %46, label %47, label %48

47:                                               ; preds = %36
  br label %91

48:                                               ; preds = %36
  %49 = load i64, ptr %5, align 8, !tbaa !91
  %50 = load ptr, ptr %7, align 8, !tbaa !75
  %51 = getelementptr inbounds nuw %struct.FT_SvgGlyphRec_, ptr %50, i32 0, i32 2
  store i64 %49, ptr %51, align 8, !tbaa !94
  %52 = load ptr, ptr %4, align 8, !tbaa !8
  %53 = getelementptr inbounds nuw %struct.FT_GlyphSlotRec_, ptr %52, i32 0, i32 3
  %54 = load i32, ptr %53, align 8, !tbaa !95
  %55 = load ptr, ptr %7, align 8, !tbaa !75
  %56 = getelementptr inbounds nuw %struct.FT_SvgGlyphRec_, ptr %55, i32 0, i32 3
  store i32 %54, ptr %56, align 8, !tbaa !96
  %57 = load ptr, ptr %7, align 8, !tbaa !75
  %58 = getelementptr inbounds nuw %struct.FT_SvgGlyphRec_, ptr %57, i32 0, i32 4
  %59 = load ptr, ptr %6, align 8, !tbaa !86
  %60 = getelementptr inbounds nuw %struct.FT_SVG_DocumentRec_, ptr %59, i32 0, i32 2
  call void @llvm.memcpy.p0.p0.i64(ptr align 8 %58, ptr align 8 %60, i64 56, i1 false), !tbaa.struct !97
  %61 = load ptr, ptr %6, align 8, !tbaa !86
  %62 = getelementptr inbounds nuw %struct.FT_SVG_DocumentRec_, ptr %61, i32 0, i32 3
  %63 = load i16, ptr %62, align 8, !tbaa !98
  %64 = load ptr, ptr %7, align 8, !tbaa !75
  %65 = getelementptr inbounds nuw %struct.FT_SvgGlyphRec_, ptr %64, i32 0, i32 5
  store i16 %63, ptr %65, align 8, !tbaa !99
  %66 = load ptr, ptr %6, align 8, !tbaa !86
  %67 = getelementptr inbounds nuw %struct.FT_SVG_DocumentRec_, ptr %66, i32 0, i32 4
  %68 = load i16, ptr %67, align 2, !tbaa !100
  %69 = load ptr, ptr %7, align 8, !tbaa !75
  %70 = getelementptr inbounds nuw %struct.FT_SvgGlyphRec_, ptr %69, i32 0, i32 6
  store i16 %68, ptr %70, align 2, !tbaa !101
  %71 = load ptr, ptr %6, align 8, !tbaa !86
  %72 = getelementptr inbounds nuw %struct.FT_SVG_DocumentRec_, ptr %71, i32 0, i32 5
  %73 = load i16, ptr %72, align 4, !tbaa !102
  %74 = load ptr, ptr %7, align 8, !tbaa !75
  %75 = getelementptr inbounds nuw %struct.FT_SvgGlyphRec_, ptr %74, i32 0, i32 7
  store i16 %73, ptr %75, align 4, !tbaa !103
  %76 = load ptr, ptr %7, align 8, !tbaa !75
  %77 = getelementptr inbounds nuw %struct.FT_SvgGlyphRec_, ptr %76, i32 0, i32 8
  %78 = load ptr, ptr %6, align 8, !tbaa !86
  %79 = getelementptr inbounds nuw %struct.FT_SVG_DocumentRec_, ptr %78, i32 0, i32 6
  call void @llvm.memcpy.p0.p0.i64(ptr align 8 %77, ptr align 8 %79, i64 32, i1 false), !tbaa.struct !104
  %80 = load ptr, ptr %7, align 8, !tbaa !75
  %81 = getelementptr inbounds nuw %struct.FT_SvgGlyphRec_, ptr %80, i32 0, i32 9
  %82 = load ptr, ptr %6, align 8, !tbaa !86
  %83 = getelementptr inbounds nuw %struct.FT_SVG_DocumentRec_, ptr %82, i32 0, i32 7
  call void @llvm.memcpy.p0.p0.i64(ptr align 8 %81, ptr align 8 %83, i64 16, i1 false), !tbaa.struct !105
  %84 = load ptr, ptr %7, align 8, !tbaa !75
  %85 = getelementptr inbounds nuw %struct.FT_SvgGlyphRec_, ptr %84, i32 0, i32 1
  %86 = load ptr, ptr %85, align 8, !tbaa !92
  %87 = load ptr, ptr %6, align 8, !tbaa !86
  %88 = getelementptr inbounds nuw %struct.FT_SVG_DocumentRec_, ptr %87, i32 0, i32 0
  %89 = load ptr, ptr %88, align 8, !tbaa !106
  %90 = load i64, ptr %5, align 8, !tbaa !91
  call void @llvm.memcpy.p0.p0.i64(ptr align 1 %86, ptr align 1 %89, i64 %90, i1 false)
  br label %91

91:                                               ; preds = %48, %47, %35, %26, %20
  %92 = load i32, ptr %8, align 4, !tbaa !12
  call void @llvm.lifetime.end.p0(i64 8, ptr %9) #6
  call void @llvm.lifetime.end.p0(i64 4, ptr %8) #6
  call void @llvm.lifetime.end.p0(i64 8, ptr %7) #6
  call void @llvm.lifetime.end.p0(i64 8, ptr %6) #6
  call void @llvm.lifetime.end.p0(i64 8, ptr %5) #6
  ret i32 %92
}