; Function Attrs: nounwind uwtable
define internal i32 @ft_svg_glyph_init(ptr noundef captures(none) %0, ptr noundef readonly captures(none) %1) #0 {
  %3 = alloca i32, align 4
  call void @llvm.lifetime.start.p0(i64 4, ptr nonnull %3) #6
  store i32 0, ptr %3, align 4, !tbaa !38
  %4 = load ptr, ptr %0, align 8, !tbaa !3
  %5 = load ptr, ptr %4, align 8, !tbaa !61
  %6 = getelementptr inbounds nuw i8, ptr %1, i64 144
  %7 = load i32, ptr %6, align 8, !tbaa !13
  %.not = icmp eq i32 %7, 1398163232
  br i1 %.not, label %8, label %41

8:                                                ; preds = %2
  %9 = getelementptr inbounds nuw i8, ptr %1, i64 288
  %10 = load ptr, ptr %9, align 8, !tbaa !68
  %11 = icmp eq ptr %10, null
  br i1 %11, label %41, label %12

12:                                               ; preds = %8
  %13 = getelementptr inbounds nuw i8, ptr %10, i64 8
  %14 = load i64, ptr %13, align 8, !tbaa !69
  %15 = icmp eq i64 %14, 0
  br i1 %15, label %41, label %16

16:                                               ; preds = %12
  %17 = call ptr @ft_mem_qalloc(ptr noundef %5, i64 noundef %14, ptr noundef nonnull %3) #6
  %18 = getelementptr inbounds nuw i8, ptr %0, i64 40
  store ptr %17, ptr %18, align 8, !tbaa !72
  %19 = load i32, ptr %3, align 4, !tbaa !38
  %.not29 = icmp eq i32 %19, 0
  br i1 %.not29, label %20, label %41

20:                                               ; preds = %16
  %21 = getelementptr inbounds nuw i8, ptr %0, i64 48
  store i64 %14, ptr %21, align 8, !tbaa !74
  %22 = getelementptr inbounds nuw i8, ptr %1, i64 24
  %23 = load i32, ptr %22, align 8, !tbaa !75
  %24 = getelementptr inbounds nuw i8, ptr %0, i64 56
  store i32 %23, ptr %24, align 8, !tbaa !76
  %25 = getelementptr inbounds nuw i8, ptr %0, i64 64
  %26 = getelementptr inbounds nuw i8, ptr %10, i64 16
  call void @llvm.memcpy.p0.p0.i64(ptr noundef nonnull align 8 dereferenceable(56) %25, ptr noundef nonnull align 8 dereferenceable(56) %26, i64 56, i1 false), !tbaa.struct !77
  %27 = getelementptr inbounds nuw i8, ptr %10, i64 72
  %28 = load i16, ptr %27, align 8, !tbaa !79
  %29 = getelementptr inbounds nuw i8, ptr %0, i64 120
  store i16 %28, ptr %29, align 8, !tbaa !80
  %30 = getelementptr inbounds nuw i8, ptr %10, i64 74
  %31 = load i16, ptr %30, align 2, !tbaa !81
  %32 = getelementptr inbounds nuw i8, ptr %0, i64 122
  store i16 %31, ptr %32, align 2, !tbaa !82
  %33 = getelementptr inbounds nuw i8, ptr %10, i64 76
  %34 = load i16, ptr %33, align 4, !tbaa !83
  %35 = getelementptr inbounds nuw i8, ptr %0, i64 124
  store i16 %34, ptr %35, align 4, !tbaa !84
  %36 = getelementptr inbounds nuw i8, ptr %0, i64 128
  %37 = getelementptr inbounds nuw i8, ptr %10, i64 80
  call void @llvm.memcpy.p0.p0.i64(ptr noundef nonnull align 8 dereferenceable(32) %36, ptr noundef nonnull align 8 dereferenceable(32) %37, i64 32, i1 false), !tbaa.struct !85
  %38 = getelementptr inbounds nuw i8, ptr %0, i64 160
  %39 = getelementptr inbounds nuw i8, ptr %10, i64 112
  call void @llvm.memcpy.p0.p0.i64(ptr noundef nonnull align 8 dereferenceable(16) %38, ptr noundef nonnull align 8 dereferenceable(16) %39, i64 16, i1 false), !tbaa.struct !86
  %40 = load ptr, ptr %10, align 8, !tbaa !87
  call void @llvm.memcpy.p0.p0.i64(ptr align 1 %17, ptr align 1 %40, i64 %14, i1 false)
  %.pre = load i32, ptr %3, align 4, !tbaa !38
  br label %41

41:                                               ; preds = %12, %8, %2, %16, %20
  %42 = phi i32 [ %19, %16 ], [ %.pre, %20 ], [ 18, %2 ], [ 37, %8 ], [ 37, %12 ]
  call void @llvm.lifetime.end.p0(i64 4, ptr nonnull %3) #6
  ret i32 %42
}